target datalayout = "e-m:e-p270:32:32-p271:32:32-p272:64:64-i64:64-i128:128-f80:128-n8:16:32:64-S128"
target triple = "x86_64-unknown-linux-gnu"

%struct.BlockdevOptionsNbd = type { ptr, ptr, ptr, ptr, ptr, i8, i32, i8, i32 }

@.str.308 = private unnamed_addr constant [7 x i8] c"server\00", align 1
@.str.369 = private unnamed_addr constant [7 x i8] c"export\00", align 1
@.str.370 = private unnamed_addr constant [10 x i8] c"tls-creds\00", align 1
@.str.371 = private unnamed_addr constant [13 x i8] c"tls-hostname\00", align 1
@.str.372 = private unnamed_addr constant [15 x i8] c"x-dirty-bitmap\00", align 1
@.str.373 = private unnamed_addr constant [16 x i8] c"reconnect-delay\00", align 1
@.str.374 = private unnamed_addr constant [13 x i8] c"open-timeout\00", align 1

; Function Attrs: nounwind sspstrong uwtable
define dso_local zeroext i1 @visit_type_BlockdevOptionsNbd_members(ptr noundef %v, ptr noundef %obj, ptr noundef %errp) #0 {
entry:
  %retval = alloca i1, align 1
  %v.addr = alloca ptr, align 8
  %obj.addr = alloca ptr, align 8
  %errp.addr = alloca ptr, align 8
  %has_export = alloca i8, align 1
  %has_tls_creds = alloca i8, align 1
  %has_tls_hostname = alloca i8, align 1
  %has_x_dirty_bitmap = alloca i8, align 1
  store ptr %v, ptr %v.addr, align 8
  store ptr %obj, ptr %obj.addr, align 8
  store ptr %errp, ptr %errp.addr, align 8
  %0 = load ptr, ptr %obj.addr, align 8
  %export = getelementptr inbounds %struct.BlockdevOptionsNbd, ptr %0, i32 0, i32 1
  %1 = load ptr, ptr %export, align 8
  %tobool = icmp ne ptr %1, null
  %lnot = xor i1 %tobool, true
  %lnot1 = xor i1 %lnot, true
  %frombool = zext i1 %lnot1 to i8
  store i8 %frombool, ptr %has_export, align 1
  %2 = load ptr, ptr %obj.addr, align 8
  %tls_creds = getelementptr inbounds %struct.BlockdevOptionsNbd, ptr %2, i32 0, i32 2
  %3 = load ptr, ptr %tls_creds, align 8
  %tobool2 = icmp ne ptr %3, null
  %lnot3 = xor i1 %tobool2, true
  %lnot4 = xor i1 %lnot3, true
  %frombool5 = zext i1 %lnot4 to i8
  store i8 %frombool5, ptr %has_tls_creds, align 1
  %4 = load ptr, ptr %obj.addr, align 8
  %tls_hostname = getelementptr inbounds %struct.BlockdevOptionsNbd, ptr %4, i32 0, i32 3
  %5 = load ptr, ptr %tls_hostname, align 8
  %tobool6 = icmp ne ptr %5, null
  %lnot7 = xor i1 %tobool6, true
  %lnot8 = xor i1 %lnot7, true
  %frombool9 = zext i1 %lnot8 to i8
  store i8 %frombool9, ptr %has_tls_hostname, align 1
  %6 = load ptr, ptr %obj.addr, align 8
  %x_dirty_bitmap = getelementptr inbounds %struct.BlockdevOptionsNbd, ptr %6, i32 0, i32 4
  %7 = load ptr, ptr %x_dirty_bitmap, align 8
  %tobool10 = icmp ne ptr %7, null
  %lnot11 = xor i1 %tobool10, true
  %lnot12 = xor i1 %lnot11, true
  %frombool13 = zext i1 %lnot12 to i8
  store i8 %frombool13, ptr %has_x_dirty_bitmap, align 1
  %8 = load ptr, ptr %v.addr, align 8
  %9 = load ptr, ptr %obj.addr, align 8
  %server = getelementptr inbounds %struct.BlockdevOptionsNbd, ptr %9, i32 0, i32 0
  %10 = load ptr, ptr %errp.addr, align 8
  %call = call zeroext i1 @visit_type_SocketAddress(ptr noundef %8, ptr noundef @.str.308, ptr noundef %server, ptr noundef %10)
  br i1 %call, label %if.end, label %if.then

if.then:                                          ; preds = %entry
  store i1 false, ptr %retval, align 1
  br label %return

if.end:                                           ; preds = %entry
  %11 = load ptr, ptr %v.addr, align 8
  %call14 = call zeroext i1 @visit_optional(ptr noundef %11, ptr noundef @.str.369, ptr noundef %has_export)
  br i1 %call14, label %if.then15, label %if.end20

if.then15:                                        ; preds = %if.end
  %12 = load ptr, ptr %v.addr, align 8
  %13 = load ptr, ptr %obj.addr, align 8
  %export16 = getelementptr inbounds %struct.BlockdevOptionsNbd, ptr %13, i32 0, i32 1
  %14 = load ptr, ptr %errp.addr, align 8
  %call17 = call zeroext i1 @visit_type_str(ptr noundef %12, ptr noundef @.str.369, ptr noundef %export16, ptr noundef %14)
  br i1 %call17, label %if.end19, label %if.then18

if.then18:                                        ; preds = %if.then15
  store i1 false, ptr %retval, align 1
  br label %return

if.end19:                                         ; preds = %if.then15
  br label %if.end20

if.end20:                                         ; preds = %if.end19, %if.end
  %15 = load ptr, ptr %v.addr, align 8
  %call21 = call zeroext i1 @visit_optional(ptr noundef %15, ptr noundef @.str.370, ptr noundef %has_tls_creds)
  br i1 %call21, label %if.then22, label %if.end27

if.then22:                                        ; preds = %if.end20
  %16 = load ptr, ptr %v.addr, align 8
  %17 = load ptr, ptr %obj.addr, align 8
  %tls_creds23 = getelementptr inbounds %struct.BlockdevOptionsNbd, ptr %17, i32 0, i32 2
  %18 = load ptr, ptr %errp.addr, align 8
  %call24 = call zeroext i1 @visit_type_str(ptr noundef %16, ptr noundef @.str.370, ptr noundef %tls_creds23, ptr noundef %18)
  br i1 %call24, label %if.end26, label %if.then25

if.then25:                                        ; preds = %if.then22
  store i1 false, ptr %retval, align 1
  br label %return

if.end26:                                         ; preds = %if.then22
  br label %if.end27

if.end27:                                         ; preds = %if.end26, %if.end20
  %19 = load ptr, ptr %v.addr, align 8
  %call28 = call zeroext i1 @visit_optional(ptr noundef %19, ptr noundef @.str.371, ptr noundef %has_tls_hostname)
  br i1 %call28, label %if.then29, label %if.end34

if.then29:                                        ; preds = %if.end27
  %20 = load ptr, ptr %v.addr, align 8
  %21 = load ptr, ptr %obj.addr, align 8
  %tls_hostname30 = getelementptr inbounds %struct.BlockdevOptionsNbd, ptr %21, i32 0, i32 3
  %22 = load ptr, ptr %errp.addr, align 8
  %call31 = call zeroext i1 @visit_type_str(ptr noundef %20, ptr noundef @.str.371, ptr noundef %tls_hostname30, ptr noundef %22)
  br i1 %call31, label %if.end33, label %if.then32

if.then32:                                        ; preds = %if.then29
  store i1 false, ptr %retval, align 1
  br label %return

if.end33:                                         ; preds = %if.then29
  br label %if.end34

if.end34:                                         ; preds = %if.end33, %if.end27
  %23 = load ptr, ptr %v.addr, align 8
  %call35 = call zeroext i1 @visit_optional(ptr noundef %23, ptr noundef @.str.372, ptr noundef %has_x_dirty_bitmap)
  br i1 %call35, label %if.then36, label %if.end47

if.then36:                                        ; preds = %if.end34
  %24 = load ptr, ptr %v.addr, align 8
  %25 = load ptr, ptr %errp.addr, align 8
  %call37 = call zeroext i1 @visit_policy_reject(ptr noundef %24, ptr noundef @.str.372, i32 noundef 2, ptr noundef %25)
  br i1 %call37, label %if.then38, label %if.end39

if.then38:                                        ; preds = %if.then36
  store i1 false, ptr %retval, align 1
  br label %return

if.end39:                                         ; preds = %if.then36
  %26 = load ptr, ptr %v.addr, align 8
  %call40 = call zeroext i1 @visit_policy_skip(ptr noundef %26, ptr noundef @.str.372, i32 noundef 2)
  br i1 %call40, label %if.end46, label %if.then41

if.then41:                                        ; preds = %if.end39
  %27 = load ptr, ptr %v.addr, align 8
  %28 = load ptr, ptr %obj.addr, align 8
  %x_dirty_bitmap42 = getelementptr inbounds %struct.BlockdevOptionsNbd, ptr %28, i32 0, i32 4
  %29 = load ptr, ptr %errp.addr, align 8
  %call43 = call zeroext i1 @visit_type_str(ptr noundef %27, ptr noundef @.str.372, ptr noundef %x_dirty_bitmap42, ptr noundef %29)
  br i1 %call43, label %if.end45, label %if.then44

if.then44:                                        ; preds = %if.then41
  store i1 false, ptr %retval, align 1
  br label %return

if.end45:                                         ; preds = %if.then41
  br label %if.end46

if.end46:                                         ; preds = %if.end45, %if.end39
  br label %if.end47

if.end47:                                         ; preds = %if.end46, %if.end34
  %30 = load ptr, ptr %v.addr, align 8
  %31 = load ptr, ptr %obj.addr, align 8
  %has_reconnect_delay = getelementptr inbounds %struct.BlockdevOptionsNbd, ptr %31, i32 0, i32 5
  %call48 = call zeroext i1 @visit_optional(ptr noundef %30, ptr noundef @.str.373, ptr noundef %has_reconnect_delay)
  br i1 %call48, label %if.then49, label %if.end53

if.then49:                                        ; preds = %if.end47
  %32 = load ptr, ptr %v.addr, align 8
  %33 = load ptr, ptr %obj.addr, align 8
  %reconnect_delay = getelementptr inbounds %struct.BlockdevOptionsNbd, ptr %33, i32 0, i32 6
  %34 = load ptr, ptr %errp.addr, align 8
  %call50 = call zeroext i1 @visit_type_uint32(ptr noundef %32, ptr noundef @.str.373, ptr noundef %reconnect_delay, ptr noundef %34)
  br i1 %call50, label %if.end52, label %if.then51

if.then51:                                        ; preds = %if.then49
  store i1 false, ptr %retval, align 1
  br label %return

if.end52:                                         ; preds = %if.then49
  br label %if.end53

if.end53:                                         ; preds = %if.end52, %if.end47
  %35 = load ptr, ptr %v.addr, align 8
  %36 = load ptr, ptr %obj.addr, align 8
  %has_open_timeout = getelementptr inbounds %struct.BlockdevOptionsNbd, ptr %36, i32 0, i32 7
  %call54 = call zeroext i1 @visit_optional(ptr noundef %35, ptr noundef @.str.374, ptr noundef %has_open_timeout)
  br i1 %call54, label %if.then55, label %if.end59

if.then55:                                        ; preds = %if.end53
  %37 = load ptr, ptr %v.addr, align 8
  %38 = load ptr, ptr %obj.addr, align 8
  %open_timeout = getelementptr inbounds %struct.BlockdevOptionsNbd, ptr %38, i32 0, i32 8
  %39 = load ptr, ptr %errp.addr, align 8
  %call56 = call zeroext i1 @visit_type_uint32(ptr noundef %37, ptr noundef @.str.374, ptr noundef %open_timeout, ptr noundef %39)
  br i1 %call56, label %if.end58, label %if.then57

if.then57:                                        ; preds = %if.then55
  store i1 false, ptr %retval, align 1
  br label %return

if.end58:                                         ; preds = %if.then55
  br label %if.end59

if.end59:                                         ; preds = %if.end58, %if.end53
  store i1 true, ptr %retval, align 1
  br label %return

return:                                           ; preds = %if.end59, %if.then57, %if.then51, %if.then44, %if.then38, %if.then32, %if.then25, %if.then18, %if.then
  %40 = load i1, ptr %retval, align 1
  ret i1 %40
}