; Function Attrs: nounwind sspstrong uwtable
define dso_local noundef zeroext i1 @visit_type_BlockdevOptionsNbd_members(ptr noundef %v, ptr noundef %obj, ptr noundef %errp) local_unnamed_addr #0 {
entry:
  %has_export = alloca i8, align 1
  %has_tls_creds = alloca i8, align 1
  %has_tls_hostname = alloca i8, align 1
  %has_x_dirty_bitmap = alloca i8, align 1
  %export = getelementptr inbounds nuw i8, ptr %obj, i64 8
  %0 = load ptr, ptr %export, align 8
  %tobool = icmp ne ptr %0, null
  %frombool = zext i1 %tobool to i8
  store i8 %frombool, ptr %has_export, align 1
  %tls_creds = getelementptr inbounds nuw i8, ptr %obj, i64 16
  %1 = load ptr, ptr %tls_creds, align 8
  %tobool2 = icmp ne ptr %1, null
  %frombool5 = zext i1 %tobool2 to i8
  store i8 %frombool5, ptr %has_tls_creds, align 1
  %tls_hostname = getelementptr inbounds nuw i8, ptr %obj, i64 24
  %2 = load ptr, ptr %tls_hostname, align 8
  %tobool6 = icmp ne ptr %2, null
  %frombool9 = zext i1 %tobool6 to i8
  store i8 %frombool9, ptr %has_tls_hostname, align 1
  %x_dirty_bitmap = getelementptr inbounds nuw i8, ptr %obj, i64 32
  %3 = load ptr, ptr %x_dirty_bitmap, align 8
  %tobool10 = icmp ne ptr %3, null
  %frombool13 = zext i1 %tobool10 to i8
  store i8 %frombool13, ptr %has_x_dirty_bitmap, align 1
  %call = tail call zeroext i1 @visit_type_SocketAddress(ptr noundef %v, ptr noundef nonnull @.str.308, ptr noundef %obj, ptr noundef %errp) #5
  br i1 %call, label %if.end, label %return

if.end:                                           ; preds = %entry
  %call14 = call zeroext i1 @visit_optional(ptr noundef %v, ptr noundef nonnull @.str.369, ptr noundef nonnull %has_export) #5
  br i1 %call14, label %if.then15, label %if.end20

if.then15:                                        ; preds = %if.end
  %call17 = call zeroext i1 @visit_type_str(ptr noundef %v, ptr noundef nonnull @.str.369, ptr noundef nonnull %export, ptr noundef %errp) #5
  br i1 %call17, label %if.end20, label %return

if.end20:                                         ; preds = %if.then15, %if.end
  %call21 = call zeroext i1 @visit_optional(ptr noundef %v, ptr noundef nonnull @.str.370, ptr noundef nonnull %has_tls_creds) #5
  br i1 %call21, label %if.then22, label %if.end27

if.then22:                                        ; preds = %if.end20
  %call24 = call zeroext i1 @visit_type_str(ptr noundef %v, ptr noundef nonnull @.str.370, ptr noundef nonnull %tls_creds, ptr noundef %errp) #5
  br i1 %call24, label %if.end27, label %return

if.end27:                                         ; preds = %if.then22, %if.end20
  %call28 = call zeroext i1 @visit_optional(ptr noundef %v, ptr noundef nonnull @.str.371, ptr noundef nonnull %has_tls_hostname) #5
  br i1 %call28, label %if.then29, label %if.end34

if.then29:                                        ; preds = %if.end27
  %call31 = call zeroext i1 @visit_type_str(ptr noundef %v, ptr noundef nonnull @.str.371, ptr noundef nonnull %tls_hostname, ptr noundef %errp) #5
  br i1 %call31, label %if.end34, label %return

if.end34:                                         ; preds = %if.then29, %if.end27
  %call35 = call zeroext i1 @visit_optional(ptr noundef %v, ptr noundef nonnull @.str.372, ptr noundef nonnull %has_x_dirty_bitmap) #5
  br i1 %call35, label %if.then36, label %if.end47

if.then36:                                        ; preds = %if.end34
  %call37 = call zeroext i1 @visit_policy_reject(ptr noundef %v, ptr noundef nonnull @.str.372, i32 noundef 2, ptr noundef %errp) #5
  br i1 %call37, label %return, label %if.end39

if.end39:                                         ; preds = %if.then36
  %call40 = call zeroext i1 @visit_policy_skip(ptr noundef %v, ptr noundef nonnull @.str.372, i32 noundef 2) #5
  br i1 %call40, label %if.end47, label %if.then41

if.then41:                                        ; preds = %if.end39
  %call43 = call zeroext i1 @visit_type_str(ptr noundef %v, ptr noundef nonnull @.str.372, ptr noundef nonnull %x_dirty_bitmap, ptr noundef %errp) #5
  br i1 %call43, label %if.end47, label %return

if.end47:                                         ; preds = %if.end39, %if.then41, %if.end34
  %has_reconnect_delay = getelementptr inbounds nuw i8, ptr %obj, i64 40
  %call48 = call zeroext i1 @visit_optional(ptr noundef %v, ptr noundef nonnull @.str.373, ptr noundef nonnull %has_reconnect_delay) #5
  br i1 %call48, label %if.then49, label %if.end53

if.then49:                                        ; preds = %if.end47
  %reconnect_delay = getelementptr inbounds nuw i8, ptr %obj, i64 44
  %call50 = call zeroext i1 @visit_type_uint32(ptr noundef %v, ptr noundef nonnull @.str.373, ptr noundef nonnull %reconnect_delay, ptr noundef %errp) #5
  br i1 %call50, label %if.end53, label %return

if.end53:                                         ; preds = %if.then49, %if.end47
  %has_open_timeout = getelementptr inbounds nuw i8, ptr %obj, i64 48
  %call54 = call zeroext i1 @visit_optional(ptr noundef %v, ptr noundef nonnull @.str.374, ptr noundef nonnull %has_open_timeout) #5
  br i1 %call54, label %if.then55, label %if.end59

if.then55:                                        ; preds = %if.end53
  %open_timeout = getelementptr inbounds nuw i8, ptr %obj, i64 52
  %call56 = call zeroext i1 @visit_type_uint32(ptr noundef %v, ptr noundef nonnull @.str.374, ptr noundef nonnull %open_timeout, ptr noundef %errp) #5
  br i1 %call56, label %if.end59, label %return

if.end59:                                         ; preds = %if.then55, %if.end53
  br label %return

return:                                           ; preds = %if.then55, %if.then49, %if.then41, %if.then36, %if.then29, %if.then22, %if.then15, %entry, %if.end59
  %retval.0 = phi i1 [ true, %if.end59 ], [ false, %entry ], [ false, %if.then15 ], [ false, %if.then22 ], [ false, %if.then29 ], [ false, %if.then36 ], [ false, %if.then41 ], [ false, %if.then49 ], [ false, %if.then55 ]
  ret i1 %retval.0
}